; ModuleID = '43/1675.c'
source_filename = "43/1675.c"
target datalayout = "e-m:e-p270:32:32-p271:32:32-p272:64:64-i64:64-f80:128-n8:16:32:64-S128"
target triple = "x86_64-pc-linux-gnu"

@.str = private unnamed_addr constant [3 x i8] c"%d\00", align 1
@.str.1 = private unnamed_addr constant [7 x i8] c"%d %d\0A\00", align 1

; Function Attrs: noinline nounwind uwtable
define dso_local i32 @main() #0 {
  %1 = alloca i32, align 4
  %2 = alloca i32, align 4
  %3 = alloca i32, align 4
  %4 = alloca i32, align 4
  %5 = alloca i32, align 4
  %6 = alloca i32, align 4
  %7 = alloca i32, align 4
  store i32 0, i32* %1, align 4
  %8 = call i32 (i8*, ...) @__isoc99_scanf(i8* getelementptr inbounds ([3 x i8], [3 x i8]* @.str, i64 0, i64 0), i32* %2)
  store i32 3, i32* %3, align 4
  br label %9

9:                                                ; preds = %68, %0
  %10 = load i32, i32* %3, align 4
  %11 = load i32, i32* %2, align 4
  %12 = sdiv i32 %11, 2
  %13 = icmp sle i32 %10, %12
  br i1 %13, label %14, label %71

14:                                               ; preds = %9
  store i32 0, i32* %6, align 4
  store i32 0, i32* %7, align 4
  store i32 2, i32* %4, align 4
  br label %15

15:                                               ; preds = %29, %14
  %16 = load i32, i32* %4, align 4
  %17 = load i32, i32* %3, align 4
  %18 = sub nsw i32 %17, 1
  %19 = icmp sle i32 %16, %18
  br i1 %19, label %20, label %32

20:                                               ; preds = %15
  %21 = load i32, i32* %3, align 4
  %22 = load i32, i32* %4, align 4
  %23 = srem i32 %21, %22
  %24 = icmp eq i32 %23, 0
  br i1 %24, label %25, label %28

25:                                               ; preds = %20
  %26 = load i32, i32* %6, align 4
  %27 = add nsw i32 %26, 1
  store i32 %27, i32* %6, align 4
  br label %28

28:                                               ; preds = %25, %20
  br label %29

29:                                               ; preds = %28
  %30 = load i32, i32* %4, align 4
  %31 = add nsw i32 %30, 1
  store i32 %31, i32* %4, align 4
  br label %15

32:                                               ; preds = %15
  %33 = load i32, i32* %6, align 4
  %34 = icmp eq i32 %33, 0
  br i1 %34, label %35, label %67

35:                                               ; preds = %32
  store i32 2, i32* %5, align 4
  br label %36

36:                                               ; preds = %54, %35
  %37 = load i32, i32* %5, align 4
  %38 = load i32, i32* %2, align 4
  %39 = load i32, i32* %3, align 4
  %40 = sub nsw i32 %38, %39
  %41 = sub nsw i32 %40, 1
  %42 = icmp sle i32 %37, %41
  br i1 %42, label %43, label %57

43:                                               ; preds = %36
  %44 = load i32, i32* %2, align 4
  %45 = load i32, i32* %3, align 4
  %46 = sub nsw i32 %44, %45
  %47 = load i32, i32* %5, align 4
  %48 = srem i32 %46, %47
  %49 = icmp eq i32 %48, 0
  br i1 %49, label %50, label %53

50:                                               ; preds = %43
  %51 = load i32, i32* %7, align 4
  %52 = add nsw i32 %51, 1
  store i32 %52, i32* %7, align 4
  br label %53

53:                                               ; preds = %50, %43
  br label %54

54:                                               ; preds = %53
  %55 = load i32, i32* %5, align 4
  %56 = add nsw i32 %55, 1
  store i32 %56, i32* %5, align 4
  br label %36

57:                                               ; preds = %36
  %58 = load i32, i32* %7, align 4
  %59 = icmp eq i32 %58, 0
  br i1 %59, label %60, label %66

60:                                               ; preds = %57
  %61 = load i32, i32* %3, align 4
  %62 = load i32, i32* %2, align 4
  %63 = load i32, i32* %3, align 4
  %64 = sub nsw i32 %62, %63
  %65 = call i32 (i8*, ...) @printf(i8* getelementptr inbounds ([7 x i8], [7 x i8]* @.str.1, i64 0, i64 0), i32 %61, i32 %64)
  br label %66

66:                                               ; preds = %60, %57
  br label %67

67:                                               ; preds = %66, %32
  br label %68

68:                                               ; preds = %67
  %69 = load i32, i32* %3, align 4
  %70 = add nsw i32 %69, 2
  store i32 %70, i32* %3, align 4
  br label %9

71:                                               ; preds = %9
  ret i32 0
}

declare dso_local i32 @__isoc99_scanf(i8*, ...) #1

declare dso_local i32 @printf(i8*, ...) #1


!llvm.module.flags = !{!0}
!llvm.ident = !{!1}

!0 = !{i32 1, !"wchar_size", i32 4}
!1 = !{!"clang version 10.0.0-4ubuntu1 "}
